; ModuleID = '56/2359.c'
source_filename = "56/2359.c"
target datalayout = "e-m:e-p270:32:32-p271:32:32-p272:64:64-i64:64-f80:128-n8:16:32:64-S128"
target triple = "x86_64-pc-linux-gnu"

@.str = private unnamed_addr constant [3 x i8] c"%d\00", align 1

; Function Attrs: noinline nounwind uwtable
define dso_local void @main() #0 {
  %1 = alloca i32, align 4
  %2 = alloca i32, align 4
  %3 = alloca i32, align 4
  %4 = alloca i32, align 4
  %5 = call i32 (i8*, ...) @__isoc99_scanf(i8* getelementptr inbounds ([3 x i8], [3 x i8]* @.str, i64 0, i64 0), i32* %1)
  store i32 1, i32* %2, align 4
  br label %6

6:                                                ; preds = %21, %0
  %7 = load i32, i32* %2, align 4
  %8 = icmp slt i32 %7, 10
  br i1 %8, label %9, label %24

9:                                                ; preds = %6
  %10 = load i32, i32* %2, align 4
  %11 = sitofp i32 %10 to double
  %12 = call double @pow(double 1.000000e+01, double %11) #3
  %13 = fptosi double %12 to i32
  store i32 %13, i32* %4, align 4
  %14 = load i32, i32* %1, align 4
  %15 = load i32, i32* %4, align 4
  %16 = sdiv i32 %14, %15
  %17 = icmp slt i32 %16, 1
  br i1 %17, label %18, label %20

18:                                               ; preds = %9
  %19 = load i32, i32* %2, align 4
  store i32 %19, i32* %3, align 4
  br label %24

20:                                               ; preds = %9
  br label %21

21:                                               ; preds = %20
  %22 = load i32, i32* %2, align 4
  %23 = add nsw i32 %22, 1
  store i32 %23, i32* %2, align 4
  br label %6

24:                                               ; preds = %18, %6
  store i32 0, i32* %4, align 4
  store i32 0, i32* %2, align 4
  br label %25

25:                                               ; preds = %40, %24
  %26 = load i32, i32* %2, align 4
  %27 = load i32, i32* %3, align 4
  %28 = icmp slt i32 %26, %27
  br i1 %28, label %29, label %43

29:                                               ; preds = %25
  %30 = load i32, i32* %4, align 4
  %31 = mul nsw i32 %30, 10
  %32 = load i32, i32* %1, align 4
  %33 = srem i32 %32, 10
  %34 = add nsw i32 %31, %33
  store i32 %34, i32* %4, align 4
  %35 = load i32, i32* %1, align 4
  %36 = load i32, i32* %1, align 4
  %37 = srem i32 %36, 10
  %38 = sub nsw i32 %35, %37
  %39 = sdiv i32 %38, 10
  store i32 %39, i32* %1, align 4
  br label %40

40:                                               ; preds = %29
  %41 = load i32, i32* %2, align 4
  %42 = add nsw i32 %41, 1
  store i32 %42, i32* %2, align 4
  br label %25

43:                                               ; preds = %25
  %44 = load i32, i32* %4, align 4
  %45 = call i32 (i8*, ...) @printf(i8* getelementptr inbounds ([3 x i8], [3 x i8]* @.str, i64 0, i64 0), i32 %44)
  ret void
}

declare dso_local i32 @__isoc99_scanf(i8*, ...) #1

; Function Attrs: nounwind
declare dso_local double @pow(double, double) #2

declare dso_local i32 @printf(i8*, ...) #1


!llvm.module.flags = !{!0}
!llvm.ident = !{!1}

!0 = !{i32 1, !"wchar_size", i32 4}
!1 = !{!"clang version 10.0.0-4ubuntu1 "}
